This certificate was extracted from the document:

  TCG EK Credential Profile - Specification Version 2.0, Revision 14
    A. Certificate Examples
      A.2 Example 2 (non-user device TPM, e.g. DevID)

  https://www.trustedcomputinggroup.org/wp-content/uploads/Credential_Profile_EK_V2.0_R14_published.pdf

--------------------------------------------------------------------------------
Documentation for A.2 Example 2 (non-user device TPM, e.g. DevID)
--------------------------------------------------------------------------------

This second example certificate additionally includes the optional
HardwareModuleName attribute in the subject alternative name extension which
includes the TPM serial number. The particular use case for such an EK
certificate is for non-user devices (e.g. switches, routers, and wireless
access points) that require an Device Identifier (DevID) Credential conforming
to the IWG TPM Keys for Platform Identity[7] specification. The values used in
this example are for illustrative purpose and must be replaced with
manufacturer-specific data.


Subject alternative name:
-------------------------
HW type = TPM 2.0
TPM serial number = the string “tpmserialnumber”

```
// OBJECT IDENTIFIER id-on-hardwareModuleName (1.3.6.1.5.5.7.8.4)
06 08 2B 06 01 05 05 07 08 04
    // CONTEXT SPECIFIC (0)
    A0 1A
        // SEQUENCE
        30 18
            // OBJECT IDENTIFIER TPM2.0 (2.23.133.1.2)
            06 05 67 81 05 01 00
            // OCTECT STRING tpmserialnumber
            04 0F 74 70 6D 73 65 72 69 61 6C 6E 75 6D 62 65 72
```

The encoding of the extension above is extracted from the following example
certificate. Same as for the example certificate provided in A.1, it is
provided for illustrative propose only, all example values must be replaced
with manufacturer-specific data. For simplicity some optional configurations
(e.g. optional data within an extension) are omitted. The manufacturer’s
certificate is not required to look exactly the same as the example
certificate. For better testing the certificate is provided in PEM format.
**When read from the TPM the certificate is encoded in DER**.


--------------------------------------------------------------------------------
Attributes from PEM certificate, according to `openssl x509 -in <FILE> -text`:
--------------------------------------------------------------------------------

Certificate:
    Data:
        Version: 3 (0x2)
        Serial Number: 1 (0x1)
    Signature Algorithm: sha256WithRSAEncryption
        Issuer: CN=ExampleCA
        Validity
            Not Before: Jan 15 15:40:50 2014 GMT
            Not After : Jan 15 15:40:50 2015 GMT
        Subject:
        Subject Public Key Info:
            Public Key Algorithm: rsaEncryption
                Public-Key: (2048 bit)
                Modulus:
                    00:9d:cb:e6:d1:a3:81:2b:4e:6b:74:d2:27:61:7c:
                    c9:19:5e:52:16:d7:95:50:5a:6d:5c:5c:60:e1:eb:
                    d1:3a:f9:6e:94:1d:c1:cd:49:85:19:06:05:0d:c2:
                    2d:56:72:57:d9:f0:2f:7f:45:09:2e:d2:c1:54:14:
                    20:81:be:72:94:be:9b:46:98:fb:d9:c4:b7:a3:23:
                    5b:b3:40:86:9a:2c:7d:67:54:03:8e:46:59:16:f2:
                    2c:0f:51:9c:28:ed:2d:be:c0:af:b0:42:2d:1f:c0:
                    a6:d1:fa:bc:59:c1:85:8a:35:8b:75:10:f9:7a:e9:
                    4f:e7:9a:6a:d5:b0:07:02:f2:28:e3:e5:4b:30:95:
                    41:1b:bd:71:ac:a1:99:78:73:e3:2a:8a:ba:b1:e6:
                    23:87:b0:06:cb:e8:64:da:f9:85:ce:96:7c:1a:17:
                    60:aa:ff:8a:d3:62:19:ec:51:1d:ce:ec:a5:1d:6f:
                    14:de:ab:31:04:7c:ac:32:eb:78:8a:78:fa:02:25:
                    5f:e3:ae:ce:3a:ce:66:78:78:a2:7c:82:bd:30:69:
                    28:bc:ca:df:63:d8:97:b9:45:54:b3:f2:97:a4:4d:
                    6c:81:ea:17:f4:12:ef:c7:50:4f:70:e0:e8:b2:be:
                    4a:fb:3e:62:ef:53:ad:21:7c:b8:09:7a:cf:bd:c1:
                    b3:47
                Exponent: 65537 (0x10001)
        X509v3 extensions:
            Authority Information Access:
                CA Issuers - URI:http://www.example.com/ExampleCA.crt

            X509v3 Key Usage: critical
                Key Encipherment
            X509v3 Subject Alternative Name: critical
                DirName:/2.23.133.2.1=id:54434700/2.23.133.2.2=ABCDEF123456/2.23.133.2.3=id:00010023, othername:<unsupported>
            X509v3 Basic Constraints: critical
                CA:FALSE
            X509v3 CRL Distribution Points:

                Full Name:
                  URI:http://www.example.com/ExampleCA.crl

            X509v3 Certificate Policies:
                Policy: 1.2.3.4

            X509v3 Authority Key Identifier:
                keyid:34:77:67:24:4C:44:AF:E7:9E:2A:E0:B2:4C:69:57:95:24:B3:3D:DA

            X509v3 Extended Key Usage:
                2.23.133.8.1
            X509v3 Subject Directory Attributes:
                0.0...g....10...2.0.....c
    Signature Algorithm: sha256WithRSAEncryption
         1b:6b:66:ed:27:ff:b8:cf:4d:8c:5a:93:69:f7:d0:05:1a:91:
         2e:df:22:1a:26:a2:3a:35:e1:ef:0b:a7:f1:c5:ef:fd:95:69:
         47:28:84:91:f8:29:e9:02:1d:37:fc:c2:93:f1:33:f6:fd:c5:
         12:8b:48:e3:91:03:61:32:db:9e:50:da:1f:13:bf:5f:61:7b:
         47:5c:75:3b:c3:3c:d4:15:63:70:0a:68:53:b8:70:d8:97:78:
         e6:0f:47:c9:f7:20:36:0a:e5:07:4f:aa:b7:51:5f:8f:c1:73:
         7e:10:71:35:85:0c:02:f1:0b:4d:0b:fe:40:ef:06:35:7b:97:
         41:2d:d8:30:49:22:20:4d:ce:25:4a:c6:cd:71:9f:5d:fa:6e:
         e6:58:45:a9:ba:64:98:53:47:33:4c:31:0d:1e:67:6e:fd:52:
         6e:0c:df:d1:08:e0:32:05:bf:a1:73:5f:4b:02:e7:06:9a:71:
         58:3a:1c:56:1d:f7:7d:cd:b5:d9:03:59:5d:15:4c:6b:a4:fb:
         95:7c:ac:7e:12:8f:1f:ac:cb:01:da:86:4a:33:04:98:50:05:
         a8:b6:aa:25:84:b7:b6:c1:d0:4c:46:37:66:57:3e:38:90:88:
         6e:14:1e:f2:e0:1a:50:8e:50:75:fb:10:33:5f:d1:db:df:50:
         86:7a:84:b6

--------------------------------------------------------------------------------
PEM-encoded certificate:
--------------------------------------------------------------------------------

-----BEGIN CERTIFICATE-----
MIIEGDCCAwCgAwIBAgIBATANBgkqhkiG9w0BAQsFADAUMRIwEAYDVQQDDAlFeGFt
cGxlQ0EwHhcNMTQwMTE1MTU0MDUwWhcNMTUwMTE1MTU0MDUwWjAAMIIBIjANBgkq
hkiG9w0BAQEFAAOCAQ8AMIIBCgKCAQEAncvm0aOBK05rdNInYXzJGV5SFteVUFpt
XFxg4evROvlulB3BzUmFGQYFDcItVnJX2fAvf0UJLtLBVBQggb5ylL6bRpj72cS3
oyNbs0CGmix9Z1QDjkZZFvIsD1GcKO0tvsCvsEItH8Cm0fq8WcGFijWLdRD5eulP
55pq1bAHAvIo4+VLMJVBG71xrKGZeHPjKoq6seYjh7AGy+hk2vmFzpZ8Ghdgqv+K
02IZ7FEdzuylHW8U3qsxBHysMut4inj6AiVf467OOs5meHiifIK9MGkovMrfY9iX
uUVUs/KXpE1sgeoX9BLvx1BPcODosr5K+z5i71OtIXy4CXrPvcGzRwIDAQABo4IB
hzCCAYMwQAYIKwYBBQUHAQEENDAyMDAGCCsGAQUFBzAChiRodHRwOi8vd3d3LmV4
YW1wbGUuY29tL0V4YW1wbGVDQS5jcnQwDgYDVR0PAQH/BAQDAgAgMIGBBgNVHREB
Af8EdzB1pEswSTEWMBQGBWeBBQIBDAtpZDo1NDQzNDcwMDEXMBUGBWeBBQICDAxB
QkNERUYxMjM0NTYxFjAUBgVngQUCAwwLaWQ6MDAwMTAwMjOgJgYIKwYBBQUHCASg
GjAYBgVngQUBAgQPdHBtc2VyaWFsbnVtYmVyMAwGA1UdEwEB/wQCMAAwNQYDVR0f
BC4wLDAqoCigJoYkaHR0cDovL3d3dy5leGFtcGxlLmNvbS9FeGFtcGxlQ0EuY3Js
MBAGA1UdIAQJMAcwBQYDKgMEMB8GA1UdIwQYMBaAFDR3ZyRMRK/nnirgskxpV5Uk
sz3aMBAGA1UdJQQJMAcGBWeBBQgBMCEGA1UdCQQaMBgwFgYFZ4EFAhAxDTALDAMy
LjACAQACAWMwDQYJKoZIhvcNAQELBQADggEBABtrZu0n/7jPTYxak2n30AUakS7f
Ihomojo14e8Lp/HF7/2VaUcohJH4KekCHTf8wpPxM/b9xRKLSOORA2Ey255Q2h8T
v19he0dcdTvDPNQVY3AKaFO4cNiXeOYPR8n3IDYK5QdPqrdRX4/Bc34QcTWFDALx
C00L/kDvBjV7l0Et2DBJIiBNziVKxs1xn136buZYRam6ZJhTRzNMMQ0eZ279Um4M
39EI4DIFv6FzX0sC5waacVg6HFYd933NtdkDWV0VTGuk+5V8rH4Sjx+sywHahkoz
BJhQBai2qiWEt7bB0ExGN2ZXPjiQiG4UHvLgGlCOUHX7EDNf0dvfUIZ6hLY=
-----END CERTIFICATE-----
