This certificate was extracted from the document:

  TCG EK Credential Profile - Specification Version 2.0, Revision 14
    A. Certificate Examples
      A.1 Example 1 (user device TPM, e.g. PC-Client)

  https://www.trustedcomputinggroup.org/wp-content/uploads/Credential_Profile_EK_V2.0_R14_published.pdf


--------------------------------------------------------------------------------
Documentation for A.1 Example 1 (user device TPM, e.g. PC-Client):
--------------------------------------------------------------------------------

The following section provides an example for a standard, user device TPM (e.g.
PC-Client) Endorsement Key certificate. The ASN.1 encoding for the subject
alternative name and subject directory attributes extension is provided below.
The values used in this example are for illustrative purpose and must be
replaced with manufacturer-specific data.

```
Subject alternative name:
-------------------------
TPMManufacturer = id:54534700 (TCG)
TPMModel = ABCDEF123456 (part number)
TPMVersion = id:00010023 (firmware version)

// SEQUENCE
30 49
    // SET
    31 16
        // SEQUENCE
        30 14
            // OBJECT IDENTIFER tcg-at-tpmManufacturer (2.23.133.2.1)
            06 05 67 81 05 02 01
            // UTF8 STRING id:54434700 (TCG)
            0C 0B 69 64 3A 35 34 34 33 34 37 30 30
    // SET
    31 17
        // SEQUENCE
        30 15
            // OBJECT IDENTIFER tcg-at-tpmModel (2.23.133.2.2)
            06 05 67 81 05 02 02
            // UTF8 STRING ABCDEF123456
            0C 0C 41 42 43 44 45 46 31 32 33 34 35 36
    // SET
    31 16
        // SEQUENCE
        30 14
            // OBJECT IDENTIFER tcg-at-tpmVersion (2.23.133.2.3)
            06 05 67 81 05 02 03
            // UTF8 STRING id:00010023
            0C 0B 69 64 3A 30 30 30 31 30 30 32 33
```

Subject directory attributes:
-----------------------------
TPMSpecification
Family = id:322E3000 (2.0)
Level = 0
Revision = 99
TPMSecurityAssertions (not included here since optional)

```
// SEQUENCE
30 1E
    // OBJECT IDENTIFIER tcg-at-tpmSpecification (2.23.133.2.16)
    06 05 67 81 05 02 10
    // SET
    31 15
        // SEQUENCE
        30 13
            // UTF8 STRING (2.0)
            0C 03 32 2E 30
            // INTEGER (0)
            02 01 00
            // INTEGER (99)
            02 01 63
```

The encoding of the extensions above is extracted from the following
example certificate. The example certificate provided below is for
illustrative propose only, all example values must be replaced with
manufacturer-specific data. For simplicity some optional configurations
(e.g. optional data within an extension) are omitted. The manufacturer’s
certificate is not required to look exactly the same as the example
certificate. For better testing the certificate is provided in PEM format.
**When read from the TPM the certificate is encoded in DER**.

--------------------------------------------------------------------------------
Attributes from PEM certificate, according to `openssl x509 -in <FILE> -text`:
--------------------------------------------------------------------------------

Certificate:
    Data:
        Version: 3 (0x2)
        Serial Number: 1 (0x1)
    Signature Algorithm: sha256WithRSAEncryption
        Issuer: CN=ExampleCA
        Validity
            Not Before: Jan 15 15:40:50 2014 GMT
            Not After : Jan 15 15:40:50 2015 GMT
        Subject:
        Subject Public Key Info:
            Public Key Algorithm: rsaEncryption
                Public-Key: (2048 bit)
                Modulus:
                    00:9d:cb:e6:d1:a3:81:2b:4e:6b:74:d2:27:61:7c:
                    c9:19:5e:52:16:d7:95:50:5a:6d:5c:5c:60:e1:eb:
                    d1:3a:f9:6e:94:1d:c1:cd:49:85:19:06:05:0d:c2:
                    2d:56:72:57:d9:f0:2f:7f:45:09:2e:d2:c1:54:14:
                    20:81:be:72:94:be:9b:46:98:fb:d9:c4:b7:a3:23:
                    5b:b3:40:86:9a:2c:7d:67:54:03:8e:46:59:16:f2:
                    2c:0f:51:9c:28:ed:2d:be:c0:af:b0:42:2d:1f:c0:
                    a6:d1:fa:bc:59:c1:85:8a:35:8b:75:10:f9:7a:e9:
                    4f:e7:9a:6a:d5:b0:07:02:f2:28:e3:e5:4b:30:95:
                    41:1b:bd:71:ac:a1:99:78:73:e3:2a:8a:ba:b1:e6:
                    23:87:b0:06:cb:e8:64:da:f9:85:ce:96:7c:1a:17:
                    60:aa:ff:8a:d3:62:19:ec:51:1d:ce:ec:a5:1d:6f:
                    14:de:ab:31:04:7c:ac:32:eb:78:8a:78:fa:02:25:
                    5f:e3:ae:ce:3a:ce:66:78:78:a2:7c:82:bd:30:69:
                    28:bc:ca:df:63:d8:97:b9:45:54:b3:f2:97:a4:4d:
                    6c:81:ea:17:f4:12:ef:c7:50:4f:70:e0:e8:b2:be:
                    4a:fb:3e:62:ef:53:ad:21:7c:b8:09:7a:cf:bd:c1:
                    b3:47
                Exponent: 65537 (0x10001)
        X509v3 extensions:
            Authority Information Access:
                CA Issuers - URI:http://www.example.com/ExampleCA.crt

            X509v3 Key Usage: critical
                Key Encipherment
            X509v3 Subject Alternative Name: critical
                DirName:/2.23.133.2.1=id:54434700/2.23.133.2.2=ABCDEF123456/2.23.133.2.3=id:00010023
            X509v3 Basic Constraints: critical
                CA:FALSE
            X509v3 CRL Distribution Points:

                Full Name:
                  URI:http://www.example.com/ExampleCA.crl

            X509v3 Certificate Policies:
                Policy: 1.2.3.4

            X509v3 Authority Key Identifier:
                keyid:34:77:67:24:4C:44:AF:E7:9E:2A:E0:B2:4C:69:57:95:24:B3:3D:DA

            X509v3 Extended Key Usage:
                2.23.133.8.1
            X509v3 Subject Directory Attributes:
                0.0...g....10...2.0.....c
    Signature Algorithm: sha256WithRSAEncryption
         1b:6b:66:ed:27:ff:b8:cf:4d:8c:5a:93:69:f7:d0:05:1a:91:
         2e:df:22:1a:26:a2:3a:35:e1:ef:0b:a7:f1:c5:ef:fd:95:69:
         47:28:84:91:f8:29:e9:02:1d:37:fc:c2:93:f1:33:f6:fd:c5:
         12:8b:48:e3:91:03:61:32:db:9e:50:da:1f:13:bf:5f:61:7b:
         47:5c:75:3b:c3:3c:d4:15:63:70:0a:68:53:b8:70:d8:97:78:
         e6:0f:47:c9:f7:20:36:0a:e5:07:4f:aa:b7:51:5f:8f:c1:73:
         7e:10:71:35:85:0c:02:f1:0b:4d:0b:fe:40:ef:06:35:7b:97:
         41:2d:d8:30:49:22:20:4d:ce:25:4a:c6:cd:71:9f:5d:fa:6e:
         e6:58:45:a9:ba:64:98:53:47:33:4c:31:0d:1e:67:6e:fd:52:
         6e:0c:df:d1:08:e0:32:05:bf:a1:73:5f:4b:02:e7:06:9a:71:
         58:3a:1c:56:1d:f7:7d:cd:b5:d9:03:59:5d:15:4c:6b:a4:fb:
         95:7c:ac:7e:12:8f:1f:ac:cb:01:da:86:4a:33:04:98:50:05:
         a8:b6:aa:25:84:b7:b6:c1:d0:4c:46:37:66:57:3e:38:90:88:
         6e:14:1e:f2:e0:1a:50:8e:50:75:fb:10:33:5f:d1:db:df:50:
         86:7a:84:b6

--------------------------------------------------------------------------------
PEM-encoded certificate:
--------------------------------------------------------------------------------

-----BEGIN CERTIFICATE-----
MIID7zCCAtegAwIBAgIBATANBgkqhkiG9w0BAQsFADAUMRIwEAYDVQQDDAlFeGFt
cGxlQ0EwHhcNMTQwMTE1MTU0MDUwWhcNMTUwMTE1MTU0MDUwWjAAMIIBIjANBgkq
hkiG9w0BAQEFAAOCAQ8AMIIBCgKCAQEAncvm0aOBK05rdNInYXzJGV5SFteVUFpt
XFxg4evROvlulB3BzUmFGQYFDcItVnJX2fAvf0UJLtLBVBQggb5ylL6bRpj72cS3
oyNbs0CGmix9Z1QDjkZZFvIsD1GcKO0tvsCvsEItH8Cm0fq8WcGFijWLdRD5eulP
55pq1bAHAvIo4+VLMJVBG71xrKGZeHPjKoq6seYjh7AGy+hk2vmFzpZ8Ghdgqv+K
02IZ7FEdzuylHW8U3qsxBHysMut4inj6AiVf467OOs5meHiifIK9MGkovMrfY9iX
uUVUs/KXpE1sgeoX9BLvx1BPcODosr5K+z5i71OtIXy4CXrPvcGzRwIDAQABo4IB
XjCCAVowQAYIKwYBBQUHAQEENDAyMDAGCCsGAQUFBzAChiRodHRwOi8vd3d3LmV4
YW1wbGUuY29tL0V4YW1wbGVDQS5jcnQwDgYDVR0PAQH/BAQDAgAgMFkGA1UdEQEB
/wRPME2kSzBJMRYwFAYFZ4EFAgEMC2lkOjU0NDM0NzAwMRcwFQYFZ4EFAgIMDEFC
Q0RFRjEyMzQ1NjEWMBQGBWeBBQIDDAtpZDowMDAxMDAyMzAMBgNVHRMBAf8EAjAA
MDUGA1UdHwQuMCwwKqAooCaGJGh0dHA6Ly93d3cuZXhhbXBsZS5jb20vRXhhbXBs
ZUNBLmNybDAQBgNVHSAECTAHMAUGAyoDBDAfBgNVHSMEGDAWgBQ0d2ckTESv554q
4LJMaVeVJLM92jAQBgNVHSUECTAHBgVngQUIATAhBgNVHQkEGjAYMBYGBWeBBQIQ
MQ0wCwwDMi4wAgEAAgFjMA0GCSqGSIb3DQEBCwUAA4IBAQAba2btJ/+4z02MWpNp
99AFGpEu3yIaJqI6NeHvC6fxxe/9lWlHKISR+CnpAh03/MKT8TP2/cUSi0jjkQNh
MtueUNofE79fYXtHXHU7wzzUFWNwCmhTuHDYl3jmD0fJ9yA2CuUHT6q3UV+PwXN+
EHE1hQwC8QtNC/5A7wY1e5dBLdgwSSIgTc4lSsbNcZ9d+m7mWEWpumSYU0czTDEN
Hmdu/VJuDN/RCOAyBb+hc19LAucGmnFYOhxWHfd9zbXZA1ldFUxrpPuVfKx+Eo8f
rMsB2oZKMwSYUAWotqolhLe2wdBMRjdmVz44kIhuFB7y4BpQjlB1+xAzX9Hb31CG
eoS2
-----END CERTIFICATE-----
